target datalayout = "e-m:e-p270:32:32-p271:32:32-p272:64:64-i64:64-i128:128-f80:128-n8:16:32:64-S128"
target triple = "x86_64-pc-linux-gnu"

%struct.anon = type { [4 x ptr], [4 x ptr], i32, i32, i32, i32, i32, i32, i32, i32, i32, i32, [3 x i32], [3 x i32], [6 x i32], [6 x i32], [2 x i32], [2 x i32], [6 x [6 x double]], [6 x double], [6 x double], [6 x double], [6 x double], double, double, double, [216 x double], ptr, ptr, ptr }

; Function Attrs: nounwind uwtable
define internal void @FreeUserData(ptr noundef %0) #0 {
  %2 = alloca ptr, align 8
  %3 = alloca i32, align 4
  %4 = alloca i32, align 4
  store ptr %0, ptr %2, align 8, !tbaa !11
  call void @llvm.lifetime.start.p0(i64 4, ptr %3) #6
  call void @llvm.lifetime.start.p0(i64 4, ptr %4) #6
  %5 = load ptr, ptr %2, align 8, !tbaa !11
  %6 = getelementptr inbounds nuw %struct.anon, ptr %5, i32 0, i32 8
  %7 = load i32, ptr %6, align 8, !tbaa !46
  store i32 %7, ptr %4, align 4, !tbaa !14
  store i32 0, ptr %3, align 4, !tbaa !14
  br label %8

8:                                                ; preds = %25, %1
  %9 = load i32, ptr %3, align 4, !tbaa !14
  %10 = load i32, ptr %4, align 4, !tbaa !14
  %11 = icmp slt i32 %9, %10
  br i1 %11, label %12, label %28

12:                                               ; preds = %8
  %13 = load ptr, ptr %2, align 8, !tbaa !11
  %14 = getelementptr inbounds nuw %struct.anon, ptr %13, i32 0, i32 0
  %15 = load i32, ptr %3, align 4, !tbaa !14
  %16 = sext i32 %15 to i64
  %17 = getelementptr inbounds [4 x ptr], ptr %14, i64 0, i64 %16
  %18 = load ptr, ptr %17, align 8, !tbaa !30
  call void @SUNDlsMat_destroyMat(ptr noundef %18)
  %19 = load ptr, ptr %2, align 8, !tbaa !11
  %20 = getelementptr inbounds nuw %struct.anon, ptr %19, i32 0, i32 1
  %21 = load i32, ptr %3, align 4, !tbaa !14
  %22 = sext i32 %21 to i64
  %23 = getelementptr inbounds [4 x ptr], ptr %20, i64 0, i64 %22
  %24 = load ptr, ptr %23, align 8, !tbaa !32
  call void @SUNDlsMat_destroyArray(ptr noundef %24)
  br label %25

25:                                               ; preds = %12
  %26 = load i32, ptr %3, align 4, !tbaa !14
  %27 = add nsw i32 %26, 1
  store i32 %27, ptr %3, align 4, !tbaa !14
  br label %8

28:                                               ; preds = %8
  %29 = load ptr, ptr %2, align 8, !tbaa !11
  %30 = getelementptr inbounds nuw %struct.anon, ptr %29, i32 0, i32 28
  %31 = load ptr, ptr %30, align 8, !tbaa !34
  call void @N_VDestroy(ptr noundef %31)
  %32 = load ptr, ptr %2, align 8, !tbaa !11
  %33 = getelementptr inbounds nuw %struct.anon, ptr %32, i32 0, i32 27
  %34 = load ptr, ptr %33, align 8, !tbaa !35
  call void @N_VDestroy(ptr noundef %34)
  %35 = load ptr, ptr %2, align 8, !tbaa !11
  call void @free(ptr noundef %35) #6
  call void @llvm.lifetime.end.p0(i64 4, ptr %4) #6
  call void @llvm.lifetime.end.p0(i64 4, ptr %3) #6
  ret void
}